; ModuleID = 'source-C-CXX/29/2673.cpp'
source_filename = "source-C-CXX/29/2673.cpp"
target datalayout = "e-m:e-p270:32:32-p271:32:32-p272:64:64-i64:64-f80:128-n8:16:32:64-S128"
target triple = "x86_64-pc-linux-gnu"

%"class.std::ios_base::Init" = type { i8 }
%"class.std::basic_istream" = type { i32 (...)**, i64, %"class.std::basic_ios" }
%"class.std::basic_ios" = type { %"class.std::ios_base", %"class.std::basic_ostream"*, i8, i8, %"class.std::basic_streambuf"*, %"class.std::ctype"*, %"class.std::num_put"*, %"class.std::num_get"* }
%"class.std::ios_base" = type { i32 (...)**, i64, i64, i32, i32, i32, %"struct.std::ios_base::_Callback_list"*, %"struct.std::ios_base::_Words", [8 x %"struct.std::ios_base::_Words"], i32, %"struct.std::ios_base::_Words"*, %"class.std::locale" }
%"struct.std::ios_base::_Callback_list" = type { %"struct.std::ios_base::_Callback_list"*, void (i32, %"class.std::ios_base"*, i32)*, i32, i32 }
%"struct.std::ios_base::_Words" = type { i8*, i64 }
%"class.std::locale" = type { %"class.std::locale::_Impl"* }
%"class.std::locale::_Impl" = type { i32, %"class.std::locale::facet"**, i64, %"class.std::locale::facet"**, i8** }
%"class.std::locale::facet" = type <{ i32 (...)**, i32, [4 x i8] }>
%"class.std::basic_ostream" = type { i32 (...)**, %"class.std::basic_ios" }
%"class.std::basic_streambuf" = type { i32 (...)**, i8*, i8*, i8*, i8*, i8*, i8*, %"class.std::locale" }
%"class.std::ctype" = type <{ %"class.std::locale::facet.base", [4 x i8], %struct.__locale_struct*, i8, [7 x i8], i32*, i32*, i16*, i8, [256 x i8], [256 x i8], i8, [6 x i8] }>
%"class.std::locale::facet.base" = type <{ i32 (...)**, i32 }>
%struct.__locale_struct = type { [13 x %struct.__locale_data*], i16*, i32*, i32*, [13 x i8*] }
%struct.__locale_data = type opaque
%"class.std::num_put" = type { %"class.std::locale::facet.base", [4 x i8] }
%"class.std::num_get" = type { %"class.std::locale::facet.base", [4 x i8] }

@_ZStL8__ioinit = internal global %"class.std::ios_base::Init" zeroinitializer, align 1
@__dso_handle = external hidden global i8
@_ZSt3cin = external global %"class.std::basic_istream", align 8
@_ZSt4cout = external global %"class.std::basic_ostream", align 8
@llvm.global_ctors = appending global [1 x { i32, void ()*, i8* }] [{ i32, void ()*, i8* } { i32 65535, void ()* @_GLOBAL__sub_I_2673.cpp, i8* null }]

declare void @_ZNSt8ios_base4InitC1Ev(%"class.std::ios_base::Init"* nonnull align 1 dereferenceable(1)) unnamed_addr #0

; Function Attrs: nounwind
declare void @_ZNSt8ios_base4InitD1Ev(%"class.std::ios_base::Init"* nonnull align 1 dereferenceable(1)) unnamed_addr #1

; Function Attrs: nofree nounwind
declare i32 @__cxa_atexit(void (i8*)*, i8*, i8*) local_unnamed_addr #2

; Function Attrs: mustprogress norecurse sspstrong uwtable
define dso_local i32 @main() local_unnamed_addr #3 {
  %1 = alloca i32, align 4
  %2 = bitcast i32* %1 to i8*
  call void @llvm.lifetime.start.p0i8(i64 4, i8* nonnull %2) #8
  %3 = call nonnull align 8 dereferenceable(16) %"class.std::basic_istream"* @_ZNSirsERi(%"class.std::basic_istream"* nonnull align 8 dereferenceable(16) @_ZSt3cin, i32* nonnull align 4 dereferenceable(4) %1)
  %4 = load i32, i32* %1, align 4, !tbaa !5
  %5 = icmp slt i32 %4, 1
  br i1 %5, label %75, label %6

6:                                                ; preds = %0
  %7 = icmp ult i32 %4, 8
  br i1 %7, label %72, label %8

8:                                                ; preds = %6
  %9 = and i32 %4, -8
  %10 = or i32 %9, 1
  br label %11

11:                                               ; preds = %11, %8
  %12 = phi i32 [ 0, %8 ], [ %65, %11 ]
  %13 = phi <4 x i32> [ <i32 1, i32 2, i32 3, i32 4>, %8 ], [ %66, %11 ]
  %14 = phi <4 x i32> [ zeroinitializer, %8 ], [ %63, %11 ]
  %15 = phi <4 x i32> [ zeroinitializer, %8 ], [ %64, %11 ]
  %16 = add <4 x i32> %13, <i32 4, i32 4, i32 4, i32 4>
  %17 = urem <4 x i32> %13, <i32 7, i32 7, i32 7, i32 7>
  %18 = urem <4 x i32> %16, <i32 7, i32 7, i32 7, i32 7>
  %19 = icmp eq <4 x i32> %17, zeroinitializer
  %20 = icmp eq <4 x i32> %18, zeroinitializer
  %21 = icmp eq <4 x i32> %13, <i32 17, i32 17, i32 17, i32 17>
  %22 = icmp eq <4 x i32> %16, <i32 17, i32 17, i32 17, i32 17>
  %23 = or <4 x i1> %21, %19
  %24 = or <4 x i1> %22, %20
  %25 = icmp eq <4 x i32> %13, <i32 27, i32 27, i32 27, i32 27>
  %26 = icmp eq <4 x i32> %16, <i32 27, i32 27, i32 27, i32 27>
  %27 = or <4 x i1> %25, %23
  %28 = or <4 x i1> %26, %24
  %29 = icmp eq <4 x i32> %13, <i32 37, i32 37, i32 37, i32 37>
  %30 = icmp eq <4 x i32> %16, <i32 37, i32 37, i32 37, i32 37>
  %31 = or <4 x i1> %29, %27
  %32 = or <4 x i1> %30, %28
  %33 = icmp eq <4 x i32> %13, <i32 47, i32 47, i32 47, i32 47>
  %34 = icmp eq <4 x i32> %16, <i32 47, i32 47, i32 47, i32 47>
  %35 = or <4 x i1> %33, %31
  %36 = or <4 x i1> %34, %32
  %37 = icmp eq <4 x i32> %13, <i32 57, i32 57, i32 57, i32 57>
  %38 = icmp eq <4 x i32> %16, <i32 57, i32 57, i32 57, i32 57>
  %39 = or <4 x i1> %37, %35
  %40 = or <4 x i1> %38, %36
  %41 = icmp eq <4 x i32> %13, <i32 67, i32 67, i32 67, i32 67>
  %42 = icmp eq <4 x i32> %16, <i32 67, i32 67, i32 67, i32 67>
  %43 = or <4 x i1> %41, %39
  %44 = or <4 x i1> %42, %40
  %45 = icmp eq <4 x i32> %13, <i32 87, i32 87, i32 87, i32 87>
  %46 = icmp eq <4 x i32> %16, <i32 87, i32 87, i32 87, i32 87>
  %47 = or <4 x i1> %45, %43
  %48 = or <4 x i1> %46, %44
  %49 = icmp eq <4 x i32> %13, <i32 97, i32 97, i32 97, i32 97>
  %50 = icmp eq <4 x i32> %16, <i32 97, i32 97, i32 97, i32 97>
  %51 = or <4 x i1> %49, %47
  %52 = or <4 x i1> %50, %48
  %53 = add nsw <4 x i32> %13, <i32 -70, i32 -70, i32 -70, i32 -70>
  %54 = add <4 x i32> %13, <i32 -66, i32 -66, i32 -66, i32 -66>
  %55 = icmp ult <4 x i32> %53, <i32 10, i32 10, i32 10, i32 10>
  %56 = icmp ult <4 x i32> %54, <i32 10, i32 10, i32 10, i32 10>
  %57 = select <4 x i1> %51, <4 x i1> <i1 true, i1 true, i1 true, i1 true>, <4 x i1> %55
  %58 = select <4 x i1> %52, <4 x i1> <i1 true, i1 true, i1 true, i1 true>, <4 x i1> %56
  %59 = select <4 x i1> %57, <4 x i32> zeroinitializer, <4 x i32> %13
  %60 = select <4 x i1> %58, <4 x i32> zeroinitializer, <4 x i32> %16
  %61 = mul nsw <4 x i32> %59, %59
  %62 = mul nsw <4 x i32> %60, %60
  %63 = add <4 x i32> %61, %14
  %64 = add <4 x i32> %62, %15
  %65 = add nuw i32 %12, 8
  %66 = add <4 x i32> %13, <i32 8, i32 8, i32 8, i32 8>
  %67 = icmp eq i32 %65, %9
  br i1 %67, label %68, label %11, !llvm.loop !9

68:                                               ; preds = %11
  %69 = add <4 x i32> %64, %63
  %70 = call i32 @llvm.vector.reduce.add.v4i32(<4 x i32> %69)
  %71 = icmp eq i32 %4, %9
  br i1 %71, label %75, label %72

72:                                               ; preds = %6, %68
  %73 = phi i32 [ 1, %6 ], [ %10, %68 ]
  %74 = phi i32 [ 0, %6 ], [ %70, %68 ]
  br label %107

75:                                               ; preds = %107, %68, %0
  %76 = phi i32 [ 0, %0 ], [ %70, %68 ], [ %123, %107 ]
  %77 = call nonnull align 8 dereferenceable(8) %"class.std::basic_ostream"* @_ZNSolsEi(%"class.std::basic_ostream"* nonnull align 8 dereferenceable(8) @_ZSt4cout, i32 %76)
  %78 = bitcast %"class.std::basic_ostream"* %77 to i8**
  %79 = load i8*, i8** %78, align 8, !tbaa !12
  %80 = getelementptr i8, i8* %79, i64 -24
  %81 = bitcast i8* %80 to i64*
  %82 = load i64, i64* %81, align 8
  %83 = bitcast %"class.std::basic_ostream"* %77 to i8*
  %84 = add nsw i64 %82, 240
  %85 = getelementptr inbounds i8, i8* %83, i64 %84
  %86 = bitcast i8* %85 to %"class.std::ctype"**
  %87 = load %"class.std::ctype"*, %"class.std::ctype"** %86, align 8, !tbaa !14
  %88 = icmp eq %"class.std::ctype"* %87, null
  br i1 %88, label %89, label %90

89:                                               ; preds = %75
  call void @_ZSt16__throw_bad_castv() #9
  unreachable

90:                                               ; preds = %75
  %91 = getelementptr inbounds %"class.std::ctype", %"class.std::ctype"* %87, i64 0, i32 8
  %92 = load i8, i8* %91, align 8, !tbaa !18
  %93 = icmp eq i8 %92, 0
  br i1 %93, label %97, label %94

94:                                               ; preds = %90
  %95 = getelementptr inbounds %"class.std::ctype", %"class.std::ctype"* %87, i64 0, i32 9, i64 10
  %96 = load i8, i8* %95, align 1, !tbaa !20
  br label %103

97:                                               ; preds = %90
  call void @_ZNKSt5ctypeIcE13_M_widen_initEv(%"class.std::ctype"* nonnull align 8 dereferenceable(570) %87)
  %98 = bitcast %"class.std::ctype"* %87 to i8 (%"class.std::ctype"*, i8)***
  %99 = load i8 (%"class.std::ctype"*, i8)**, i8 (%"class.std::ctype"*, i8)*** %98, align 8, !tbaa !12
  %100 = getelementptr inbounds i8 (%"class.std::ctype"*, i8)*, i8 (%"class.std::ctype"*, i8)** %99, i64 6
  %101 = load i8 (%"class.std::ctype"*, i8)*, i8 (%"class.std::ctype"*, i8)** %100, align 8
  %102 = call signext i8 %101(%"class.std::ctype"* nonnull align 8 dereferenceable(570) %87, i8 signext 10)
  br label %103

103:                                              ; preds = %94, %97
  %104 = phi i8 [ %96, %94 ], [ %102, %97 ]
  %105 = call nonnull align 8 dereferenceable(8) %"class.std::basic_ostream"* @_ZNSo3putEc(%"class.std::basic_ostream"* nonnull align 8 dereferenceable(8) %77, i8 signext %104)
  %106 = call nonnull align 8 dereferenceable(8) %"class.std::basic_ostream"* @_ZNSo5flushEv(%"class.std::basic_ostream"* nonnull align 8 dereferenceable(8) %105)
  call void @llvm.lifetime.end.p0i8(i64 4, i8* nonnull %2) #8
  ret i32 0

107:                                              ; preds = %72, %107
  %108 = phi i32 [ %124, %107 ], [ %73, %72 ]
  %109 = phi i32 [ %123, %107 ], [ %74, %72 ]
  %110 = urem i32 %108, 7
  %111 = icmp eq i32 %110, 0
  %112 = insertelement <8 x i32> poison, i32 %108, i32 0
  %113 = shufflevector <8 x i32> %112, <8 x i32> poison, <8 x i32> zeroinitializer
  %114 = icmp eq <8 x i32> %113, <i32 97, i32 87, i32 67, i32 57, i32 47, i32 37, i32 27, i32 17>
  %115 = bitcast <8 x i1> %114 to i8
  %116 = icmp ne i8 %115, 0
  %117 = or i1 %116, %111
  %118 = add nsw i32 %108, -70
  %119 = icmp ult i32 %118, 10
  %120 = select i1 %117, i1 true, i1 %119
  %121 = select i1 %120, i32 0, i32 %108
  %122 = mul nsw i32 %121, %121
  %123 = add nuw nsw i32 %122, %109
  %124 = add nuw i32 %108, 1
  %125 = icmp eq i32 %108, %4
  br i1 %125, label %75, label %107, !llvm.loop !21
}

; Function Attrs: argmemonly mustprogress nofree nosync nounwind willreturn
declare void @llvm.lifetime.start.p0i8(i64 immarg, i8* nocapture) #4

declare nonnull align 8 dereferenceable(16) %"class.std::basic_istream"* @_ZNSirsERi(%"class.std::basic_istream"* nonnull align 8 dereferenceable(16), i32* nonnull align 4 dereferenceable(4)) local_unnamed_addr #0

; Function Attrs: argmemonly mustprogress nofree nosync nounwind willreturn
declare void @llvm.lifetime.end.p0i8(i64 immarg, i8* nocapture) #4

declare nonnull align 8 dereferenceable(8) %"class.std::basic_ostream"* @_ZNSolsEi(%"class.std::basic_ostream"* nonnull align 8 dereferenceable(8), i32) local_unnamed_addr #0

declare nonnull align 8 dereferenceable(8) %"class.std::basic_ostream"* @_ZNSo3putEc(%"class.std::basic_ostream"* nonnull align 8 dereferenceable(8), i8 signext) local_unnamed_addr #0

declare nonnull align 8 dereferenceable(8) %"class.std::basic_ostream"* @_ZNSo5flushEv(%"class.std::basic_ostream"* nonnull align 8 dereferenceable(8)) local_unnamed_addr #0

; Function Attrs: noreturn
declare void @_ZSt16__throw_bad_castv() local_unnamed_addr #5

declare void @_ZNKSt5ctypeIcE13_M_widen_initEv(%"class.std::ctype"* nonnull align 8 dereferenceable(570)) local_unnamed_addr #0

; Function Attrs: sspstrong uwtable
define internal void @_GLOBAL__sub_I_2673.cpp() #6 section ".text.startup" {
  tail call void @_ZNSt8ios_base4InitC1Ev(%"class.std::ios_base::Init"* nonnull align 1 dereferenceable(1) @_ZStL8__ioinit)
  %1 = tail call i32 @__cxa_atexit(void (i8*)* bitcast (void (%"class.std::ios_base::Init"*)* @_ZNSt8ios_base4InitD1Ev to void (i8*)*), i8* getelementptr inbounds (%"class.std::ios_base::Init", %"class.std::ios_base::Init"* @_ZStL8__ioinit, i64 0, i32 0), i8* nonnull @__dso_handle) #8
  ret void
}

; Function Attrs: nofree nosync nounwind readnone willreturn
declare i32 @llvm.vector.reduce.add.v4i32(<4 x i32>) #7


!llvm.module.flags = !{!0, !1, !2, !3}
!llvm.ident = !{!4}

!0 = !{i32 1, !"wchar_size", i32 4}
!1 = !{i32 7, !"PIC Level", i32 2}
!2 = !{i32 7, !"PIE Level", i32 2}
!3 = !{i32 7, !"uwtable", i32 1}
!4 = !{!"clang version 13.0.0"}
!5 = !{!6, !6, i64 0}
!6 = !{!"int", !7, i64 0}
!7 = !{!"omnipotent char", !8, i64 0}
!8 = !{!"Simple C++ TBAA"}
!9 = distinct !{!9, !10, !11}
!10 = !{!"llvm.loop.mustprogress"}
!11 = !{!"llvm.loop.isvectorized", i32 1}
!12 = !{!13, !13, i64 0}
!13 = !{!"vtable pointer", !8, i64 0}
!14 = !{!15, !16, i64 240}
!15 = !{!"_ZTSSt9basic_iosIcSt11char_traitsIcEE", !16, i64 216, !7, i64 224, !17, i64 225, !16, i64 232, !16, i64 240, !16, i64 248, !16, i64 256}
!16 = !{!"any pointer", !7, i64 0}
!17 = !{!"bool", !7, i64 0}
!18 = !{!19, !7, i64 56}
!19 = !{!"_ZTSSt5ctypeIcE", !16, i64 16, !17, i64 24, !16, i64 32, !16, i64 40, !16, i64 48, !7, i64 56, !7, i64 57, !7, i64 313, !7, i64 569}
!20 = !{!7, !7, i64 0}
!21 = distinct !{!21, !10, !22, !11}
!22 = !{!"llvm.loop.unroll.runtime.disable"}
